target datalayout = "e-m:e-p270:32:32-p271:32:32-p272:64:64-i64:64-i128:128-f80:128-n8:16:32:64-S128"
target triple = "x86_64-pc-linux-gnu"

%struct.sfparse_parser = type { ptr, ptr, i32 }
%struct.sfparse_value = type { i32, i32, %union.anon }
%union.anon = type { %struct.sfparse_decimal }
%struct.sfparse_decimal = type { i64, i64 }

@.str.1 = private unnamed_addr constant [107 x i8] c"generated/home/dtcxzyw/WorkSpace/Projects/compilers/llvm-opt-benchmark/bench/nghttp2/nghttp2/lib/sfparse.c\00", align 1
@.str.6 = private unnamed_addr constant [17 x i8] c"'@' == *sfp->pos\00", align 1
@__PRETTY_FUNCTION__.parser_date = private unnamed_addr constant [51 x i8] c"int parser_date(sfparse_parser *, sfparse_value *)\00", align 1

; Function Attrs: nounwind uwtable
define internal i32 @parser_eof(ptr noundef %0) #0 {
  %2 = alloca ptr, align 8
  store ptr %0, ptr %2, align 8, !tbaa !3
  %3 = load ptr, ptr %2, align 8, !tbaa !3
  %4 = getelementptr inbounds nuw %struct.sfparse_parser, ptr %3, i32 0, i32 0
  %5 = load ptr, ptr %4, align 8, !tbaa !17
  %6 = load ptr, ptr %2, align 8, !tbaa !3
  %7 = getelementptr inbounds nuw %struct.sfparse_parser, ptr %6, i32 0, i32 1
  %8 = load ptr, ptr %7, align 8, !tbaa !22
  %9 = icmp eq ptr %5, %8
  %10 = zext i1 %9 to i32
  ret i32 %10
}

; Function Attrs: nounwind uwtable
define internal i32 @parser_date(ptr noundef %0, ptr noundef %1) #0 {
  %3 = alloca i32, align 4
  %4 = alloca ptr, align 8
  %5 = alloca ptr, align 8
  %6 = alloca i32, align 4
  %7 = alloca %struct.sfparse_value, align 8
  %8 = alloca i32, align 4
  store ptr %0, ptr %4, align 8, !tbaa !3
  store ptr %1, ptr %5, align 8, !tbaa !10
  call void @llvm.lifetime.start.p0(i64 4, ptr %6) #5
  call void @llvm.lifetime.start.p0(i64 24, ptr %7) #5
  %9 = load ptr, ptr %4, align 8, !tbaa !3
  %10 = getelementptr inbounds nuw %struct.sfparse_parser, ptr %9, i32 0, i32 0
  %11 = load ptr, ptr %10, align 8, !tbaa !17
  %12 = load i8, ptr %11, align 1, !tbaa !18
  %13 = zext i8 %12 to i32
  %14 = icmp eq i32 64, %13
  br i1 %14, label %15, label %16

15:                                               ; preds = %2
  br label %17

16:                                               ; preds = %2
  call void @__assert_fail(ptr noundef @.str.6, ptr noundef @.str.1, i32 noundef 624, ptr noundef @__PRETTY_FUNCTION__.parser_date) #6
  unreachable

17:                                               ; preds = %15
  %18 = load ptr, ptr %4, align 8, !tbaa !3
  %19 = getelementptr inbounds nuw %struct.sfparse_parser, ptr %18, i32 0, i32 0
  %20 = load ptr, ptr %19, align 8, !tbaa !17
  %21 = getelementptr inbounds nuw i8, ptr %20, i32 1
  store ptr %21, ptr %19, align 8, !tbaa !17
  %22 = load ptr, ptr %4, align 8, !tbaa !3
  %23 = call i32 @parser_eof(ptr noundef %22)
  %24 = icmp ne i32 %23, 0
  br i1 %24, label %25, label %26

25:                                               ; preds = %17
  store i32 -1, ptr %3, align 4
  store i32 1, ptr %8, align 4
  br label %46

26:                                               ; preds = %17
  %27 = load ptr, ptr %4, align 8, !tbaa !3
  %28 = call i32 @parser_number(ptr noundef %27, ptr noundef %7)
  store i32 %28, ptr %6, align 4, !tbaa !16
  %29 = load i32, ptr %6, align 4, !tbaa !16
  %30 = icmp ne i32 %29, 0
  br i1 %30, label %31, label %33

31:                                               ; preds = %26
  %32 = load i32, ptr %6, align 4, !tbaa !16
  store i32 %32, ptr %3, align 4
  store i32 1, ptr %8, align 4
  br label %46

33:                                               ; preds = %26
  %34 = getelementptr inbounds nuw %struct.sfparse_value, ptr %7, i32 0, i32 0
  %35 = load i32, ptr %34, align 8, !tbaa !19
  %36 = icmp ne i32 %35, 1
  br i1 %36, label %37, label %38

37:                                               ; preds = %33
  store i32 -1, ptr %3, align 4
  store i32 1, ptr %8, align 4
  br label %46

38:                                               ; preds = %33
  %39 = load ptr, ptr %5, align 8, !tbaa !10
  %40 = icmp ne ptr %39, null
  br i1 %40, label %41, label %45

41:                                               ; preds = %38
  %42 = load ptr, ptr %5, align 8, !tbaa !10
  call void @llvm.memcpy.p0.p0.i64(ptr align 8 %42, ptr align 8 %7, i64 24, i1 false), !tbaa.struct !40
  %43 = load ptr, ptr %5, align 8, !tbaa !10
  %44 = getelementptr inbounds nuw %struct.sfparse_value, ptr %43, i32 0, i32 0
  store i32 7, ptr %44, align 8, !tbaa !19
  br label %45

45:                                               ; preds = %41, %38
  store i32 0, ptr %3, align 4
  store i32 1, ptr %8, align 4
  br label %46

46:                                               ; preds = %45, %37, %31, %25
  call void @llvm.lifetime.end.p0(i64 24, ptr %7) #5
  call void @llvm.lifetime.end.p0(i64 4, ptr %6) #5
  %47 = load i32, ptr %3, align 4
  ret i32 %47
}