; Function Attrs: nounwind uwtable
define internal fastcc range(i32 -1, 1) i32 @parser_date(ptr noundef captures(none) %0, ptr noundef writeonly %1) unnamed_addr #0 {
  %3 = alloca %struct.sfparse_value, align 8
  call void @llvm.lifetime.start.p0(i64 24, ptr nonnull %3) #10
  %4 = load ptr, ptr %0, align 8, !tbaa !10
  %5 = load i8, ptr %4, align 1, !tbaa !12
  %6 = icmp eq i8 %5, 64
  br i1 %6, label %8, label %7

7:                                                ; preds = %2
  tail call void @__assert_fail(ptr noundef nonnull @.str.6, ptr noundef nonnull @.str.1, i32 noundef 624, ptr noundef nonnull @__PRETTY_FUNCTION__.parser_date) #8
  unreachable

8:                                                ; preds = %2
  %9 = getelementptr inbounds nuw i8, ptr %4, i64 1
  store ptr %9, ptr %0, align 8, !tbaa !10
  %10 = getelementptr i8, ptr %0, i64 8
  %.val14 = load ptr, ptr %10, align 8, !tbaa !11
  %.not = icmp eq ptr %9, %.val14
  br i1 %.not, label %16, label %11

11:                                               ; preds = %8
  %12 = call fastcc i32 @parser_number(ptr noundef nonnull %0, ptr noundef nonnull %3)
  %.not11 = icmp eq i32 %12, 0
  %13 = load i32, ptr %3, align 8
  %.not12 = icmp eq i32 %13, 1
  %or.cond = select i1 %.not11, i1 %.not12, i1 false
  br i1 %or.cond, label %14, label %16

14:                                               ; preds = %11
  %.not13 = icmp eq ptr %1, null
  br i1 %.not13, label %16, label %15

15:                                               ; preds = %14
  call void @llvm.memcpy.p0.p0.i64(ptr noundef nonnull align 8 dereferenceable(24) %1, ptr noundef nonnull align 8 dereferenceable(24) %3, i64 24, i1 false), !tbaa.struct !31
  store i32 7, ptr %1, align 8, !tbaa !15
  br label %16

16:                                               ; preds = %14, %15, %11, %8
  %.0 = phi i32 [ -1, %8 ], [ -1, %11 ], [ 0, %15 ], [ 0, %14 ]
  call void @llvm.lifetime.end.p0(i64 24, ptr nonnull %3) #10
  ret i32 %.0
}